; Function Attrs: mustprogress nofree norecurse nosync nounwind willreturn memory(argmem: readwrite) uwtable
define hidden void @_ZNK3ue219RoseInstrSetLogical5writeEPvRNS_14RoseEngineBlobERKSt13unordered_mapIPKNS_15RoseInstructionEjSt4hashIS7_ESt8equal_toIS7_ESaISt4pairIKS7_jEEE(ptr noundef nonnull readonly align 8 captures(none) dereferenceable(16) %0, ptr noundef writeonly captures(none) initializes((0, 12)) %1, ptr nonnull readnone align 8 captures(none) %2, ptr nonnull readnone align 8 captures(none) %3) unnamed_addr #7 align 2 personality ptr @__gxx_personality_v0 {
  tail call void @llvm.memset.p0.i64(ptr noundef nonnull align 4 dereferenceable(12) %1, i8 0, i64 12, i1 false)
  store i8 62, ptr %1, align 4
  %5 = getelementptr inbounds nuw i8, ptr %0, i64 8
  %6 = load i32, ptr %5, align 8
  %7 = getelementptr inbounds nuw i8, ptr %1, i64 4
  store i32 %6, ptr %7, align 4
  %8 = getelementptr inbounds nuw i8, ptr %0, i64 12
  %9 = load i32, ptr %8, align 4
  %10 = getelementptr inbounds nuw i8, ptr %1, i64 8
  store i32 %9, ptr %10, align 4
  ret void
}